; Function Attrs: mustprogress uwtable
define void @_ZN8QuantLib27FdHestonDoubleBarrierEngineC2ERKN5boost10shared_ptrINS_11HestonModelEEEmmmmRKNS_13FdmSchemeDescENS2_INS_21LocalVolTermStructureEEEd(ptr noundef nonnull align 8 dereferenceable(464) %this, ptr noundef nonnull align 8 dereferenceable(16) %model, i64 noundef %tGrid, i64 noundef %xGrid, i64 noundef %vGrid, i64 noundef %dampingSteps, ptr nocapture noundef nonnull readonly align 8 dereferenceable(24) %schemeDesc, ptr nocapture noundef %leverageFct, double noundef %mixingFactor) unnamed_addr #8 align 2 {
entry:
  tail call void @_ZN8QuantLib18GenericModelEngineINS_11HestonModelENS_19DoubleBarrierOption9argumentsENS_14OneAssetOption7resultsEEC2ERKN5boost10shared_ptrIS1_EE(ptr noundef nonnull align 8 dereferenceable(384) %this, ptr noundef nonnull align 8 dereferenceable(16) %model)
  store ptr getelementptr inbounds inrange(-16, 56) (i8, ptr @_ZTVN8QuantLib27FdHestonDoubleBarrierEngineE, i64 16), ptr %this, align 8, !tbaa !35
  %add.ptr = getelementptr inbounds i8, ptr %this, i64 56
  store ptr getelementptr inbounds inrange(-16, 32) (i8, ptr @_ZTVN8QuantLib27FdHestonDoubleBarrierEngineE, i64 88), ptr %add.ptr, align 8, !tbaa !35
  %tGrid_ = getelementptr inbounds nuw i8, ptr %this, i64 384
  store i64 %tGrid, ptr %tGrid_, align 8, !tbaa !39
  %xGrid_ = getelementptr inbounds nuw i8, ptr %this, i64 392
  store i64 %xGrid, ptr %xGrid_, align 8, !tbaa !72
  %vGrid_ = getelementptr inbounds nuw i8, ptr %this, i64 400
  store i64 %vGrid, ptr %vGrid_, align 8, !tbaa !73
  %dampingSteps_ = getelementptr inbounds nuw i8, ptr %this, i64 408
  store i64 %dampingSteps, ptr %dampingSteps_, align 8, !tbaa !74
  %schemeDesc_ = getelementptr inbounds nuw i8, ptr %this, i64 416
  tail call void @llvm.memcpy.p0.p0.i64(ptr noundef nonnull align 8 dereferenceable(24) %schemeDesc_, ptr noundef nonnull align 8 dereferenceable(24) %schemeDesc, i64 24, i1 false), !tbaa.struct !75
  %leverageFct_ = getelementptr inbounds nuw i8, ptr %this, i64 440
  %0 = load ptr, ptr %leverageFct, align 8, !tbaa !78
  store ptr %0, ptr %leverageFct_, align 8, !tbaa !78
  %pn.i = getelementptr inbounds nuw i8, ptr %this, i64 448
  %pn3.i = getelementptr inbounds nuw i8, ptr %leverageFct, i64 8
  %1 = load ptr, ptr %pn3.i, align 8, !tbaa !37
  store ptr %1, ptr %pn.i, align 8, !tbaa !37
  tail call void @llvm.memset.p0.i64(ptr noundef nonnull align 8 dereferenceable(16) %leverageFct, i8 0, i64 16, i1 false)
  %mixingFactor_ = getelementptr inbounds nuw i8, ptr %this, i64 456
  store double %mixingFactor, ptr %mixingFactor_, align 8, !tbaa !79
  ret void
}